; Function Attrs: nofree norecurse nosync nounwind memory(readwrite, inaccessiblemem: none) uwtable
define internal void @SDL_Blit_XBGR8888_ABGR8888_Modulate_Scale(ptr noundef captures(none) %0) #0 {
  %2 = getelementptr inbounds nuw i8, ptr %0, i64 112
  %3 = load i32, ptr %2, align 8
  %4 = getelementptr inbounds nuw i8, ptr %0, i64 120
  %5 = load i8, ptr %4, align 8
  %6 = zext i8 %5 to i32
  %7 = getelementptr inbounds nuw i8, ptr %0, i64 121
  %8 = load i8, ptr %7, align 1
  %9 = zext i8 %8 to i32
  %10 = getelementptr inbounds nuw i8, ptr %0, i64 122
  %11 = load i8, ptr %10, align 2
  %12 = zext i8 %11 to i32
  %13 = getelementptr inbounds nuw i8, ptr %0, i64 123
  %14 = load i8, ptr %13, align 1
  %15 = getelementptr inbounds nuw i8, ptr %0, i64 20
  %16 = load i32, ptr %15, align 4
  %17 = sext i32 %16 to i64
  %18 = shl nsw i64 %17, 16
  %19 = getelementptr inbounds nuw i8, ptr %0, i64 52
  %20 = load i32, ptr %19, align 4
  %21 = sext i32 %20 to i64
  %22 = udiv i64 %18, %21
  %23 = getelementptr inbounds nuw i8, ptr %0, i64 16
  %24 = load i32, ptr %23, align 8
  %25 = sext i32 %24 to i64
  %26 = shl nsw i64 %25, 16
  %27 = getelementptr inbounds nuw i8, ptr %0, i64 48
  %28 = load i32, ptr %27, align 8
  %29 = sext i32 %28 to i64
  %30 = udiv i64 %26, %29
  %31 = add nsw i32 %20, -1
  store i32 %31, ptr %19, align 4
  %.not6470 = icmp eq i32 %20, 0
  br i1 %.not6470, label %._crit_edge74, label %.lr.ph73

.lr.ph73:                                         ; preds = %1
  %32 = and i32 %3, 2
  %.not = icmp eq i32 %32, 0
  %33 = zext i8 %14 to i32
  %34 = getelementptr inbounds nuw i8, ptr %0, i64 40
  %35 = lshr i64 %30, 1
  %36 = getelementptr inbounds nuw i8, ptr %0, i64 8
  %37 = getelementptr inbounds nuw i8, ptr %0, i64 24
  %38 = and i32 %3, 1
  %.not66 = icmp eq i32 %38, 0
  %39 = shl nuw i32 %33, 24
  %40 = select i1 %.not, i32 -16777216, i32 %39
  %41 = getelementptr inbounds nuw i8, ptr %0, i64 56
  %42 = icmp eq i32 %28, 0
  br i1 %42, label %.lr.ph73.split.us, label %.lr.ph73.split.preheader

.lr.ph73.split.preheader:                         ; preds = %.lr.ph73
  %43 = lshr i64 %22, 1
  br label %.lr.ph73.split

.lr.ph73.split.us:                                ; preds = %.lr.ph73
  %44 = load i32, ptr %41, align 8
  %45 = sext i32 %44 to i64
  %.promoted = load ptr, ptr %34, align 8
  %46 = zext i32 %20 to i64
  %47 = mul nsw i64 %46, %45
  %scevgep = getelementptr i8, ptr %.promoted, i64 %47
  store ptr %scevgep, ptr %34, align 8
  store i32 -1, ptr %19, align 4
  br label %._crit_edge74

.lr.ph73.split:                                   ; preds = %.lr.ph73.split.preheader, %._crit_edge
  %.06271 = phi i64 [ %106, %._crit_edge ], [ %43, %.lr.ph73.split.preheader ]
  %48 = load i32, ptr %27, align 8
  %49 = lshr i64 %.06271, 16
  %.not6567 = icmp eq i32 %48, 0
  br i1 %.not6567, label %._crit_edge, label %.lr.ph

.lr.ph:                                           ; preds = %.lr.ph73.split
  %50 = add nsw i32 %48, -1
  %51 = load ptr, ptr %34, align 8
  br i1 %.not66, label %.lr.ph.split.us, label %.lr.ph.split

.lr.ph.split.us:                                  ; preds = %.lr.ph, %.lr.ph.split.us
  %52 = phi i32 [ %66, %.lr.ph.split.us ], [ %50, %.lr.ph ]
  %.06069.us = phi ptr [ %65, %.lr.ph.split.us ], [ %51, %.lr.ph ]
  %.06368.us = phi i64 [ %64, %.lr.ph.split.us ], [ %35, %.lr.ph ]
  %53 = load ptr, ptr %36, align 8
  %54 = load i32, ptr %37, align 8
  %55 = sext i32 %54 to i64
  %56 = mul i64 %49, %55
  %57 = getelementptr inbounds nuw i8, ptr %53, i64 %56
  %58 = lshr i64 %.06368.us, 14
  %59 = and i64 %58, 1125899906842620
  %60 = getelementptr inbounds nuw i8, ptr %57, i64 %59
  %61 = load i32, ptr %60, align 4
  %62 = and i32 %61, 16777215
  %63 = or disjoint i32 %62, %40
  store i32 %63, ptr %.06069.us, align 4
  %64 = add i64 %.06368.us, %30
  %65 = getelementptr inbounds nuw i8, ptr %.06069.us, i64 4
  %66 = add nsw i32 %52, -1
  %.not65.us = icmp eq i32 %52, 0
  br i1 %.not65.us, label %._crit_edge, label %.lr.ph.split.us, !llvm.loop !111

.lr.ph.split:                                     ; preds = %.lr.ph, %.lr.ph.split
  %67 = phi i32 [ %105, %.lr.ph.split ], [ %50, %.lr.ph ]
  %.06069 = phi ptr [ %104, %.lr.ph.split ], [ %51, %.lr.ph ]
  %.06368 = phi i64 [ %103, %.lr.ph.split ], [ %35, %.lr.ph ]
  %68 = load ptr, ptr %36, align 8
  %69 = load i32, ptr %37, align 8
  %70 = sext i32 %69 to i64
  %71 = mul i64 %49, %70
  %72 = getelementptr inbounds nuw i8, ptr %68, i64 %71
  %73 = lshr i64 %.06368, 14
  %74 = and i64 %73, 1125899906842620
  %75 = getelementptr inbounds nuw i8, ptr %72, i64 %74
  %76 = load i32, ptr %75, align 4
  %77 = lshr i32 %76, 16
  %78 = and i32 %77, 255
  %79 = lshr i32 %76, 8
  %80 = and i32 %79, 255
  %81 = and i32 %76, 255
  %82 = mul nuw nsw i32 %81, %6
  %83 = add nuw nsw i32 %82, 1
  %84 = lshr i32 %83, 8
  %85 = and i32 %84, 255
  %86 = add nuw nsw i32 %85, %83
  %87 = lshr i32 %86, 8
  %88 = and i32 %87, 255
  %89 = mul nuw nsw i32 %80, %9
  %90 = add nuw nsw i32 %89, 1
  %91 = lshr i32 %90, 8
  %92 = and i32 %91, 255
  %93 = add nuw nsw i32 %92, %90
  %94 = and i32 %93, 65280
  %95 = mul nuw nsw i32 %78, %12
  %96 = add nuw nsw i32 %95, 1
  %97 = shl nuw nsw i32 %96, 8
  %.mask = and i32 %96, 65280
  %98 = add nuw nsw i32 %.mask, %97
  %99 = and i32 %98, 16711680
  %100 = or disjoint i32 %99, %94
  %101 = or disjoint i32 %100, %88
  %102 = or disjoint i32 %101, %40
  store i32 %102, ptr %.06069, align 4
  %103 = add i64 %.06368, %30
  %104 = getelementptr inbounds nuw i8, ptr %.06069, i64 4
  %105 = add nsw i32 %67, -1
  %.not65 = icmp eq i32 %67, 0
  br i1 %.not65, label %._crit_edge, label %.lr.ph.split, !llvm.loop !111

._crit_edge:                                      ; preds = %.lr.ph.split, %.lr.ph.split.us, %.lr.ph73.split
  %106 = add i64 %.06271, %22
  %107 = load i32, ptr %41, align 8
  %108 = load ptr, ptr %34, align 8
  %109 = sext i32 %107 to i64
  %110 = getelementptr inbounds i8, ptr %108, i64 %109
  store ptr %110, ptr %34, align 8
  %111 = load i32, ptr %19, align 4
  %112 = add nsw i32 %111, -1
  store i32 %112, ptr %19, align 4
  %.not64 = icmp eq i32 %111, 0
  br i1 %.not64, label %._crit_edge74, label %.lr.ph73.split, !llvm.loop !112

._crit_edge74:                                    ; preds = %._crit_edge, %.lr.ph73.split.us, %1
  ret void
}